target datalayout = "e-m:e-p270:32:32-p271:32:32-p272:64:64-i64:64-i128:128-f80:128-n8:16:32:64-S128"
target triple = "x86_64-pc-linux-gnu"

%struct.timeval = type { i64, i64 }
%struct.pmix_list_t = type { %struct.pmix_object_t, %struct.pmix_list_item_t, i64 }
%struct.pmix_object_t = type { %union.pthread_mutex_t, ptr, i32, %struct.pmix_tma }
%union.pthread_mutex_t = type { %struct.__pthread_mutex_s }
%struct.__pthread_mutex_s = type { i32, i32, i32, i32, i32, i16, i16, %struct.__pthread_internal_list }
%struct.__pthread_internal_list = type { ptr, ptr }
%struct.pmix_tma = type { ptr, ptr, ptr, ptr, ptr, ptr, ptr, ptr }
%struct.pmix_list_item_t = type { %struct.pmix_object_t, ptr, ptr, i32 }
%struct.prte_process_info_t = type { %struct.pmix_proc, %struct.pmix_proc, ptr, %struct.pmix_proc, i32, i32, i32, ptr, ptr, i32, i8, ptr, i16, ptr, ptr, i8, ptr, i8 }
%struct.pmix_proc = type { [256 x i8], i32 }
%struct.pmix_mca_base_framework_t = type { ptr, ptr, ptr, ptr, ptr, ptr, i32, i32, ptr, ptr, i32, i32, %struct.pmix_list_t, %struct.pmix_list_t }
%struct.pmix_output_desc_t = type { i8, i8, i32, i8, i32, ptr, ptr, i32, ptr, i32, i8, i8, i8, i8, ptr, i32, i32 }
%struct.prte_state_base_module_1_0_0_t = type { ptr, ptr, ptr, ptr, ptr, ptr, ptr, ptr, ptr, ptr }
%struct.prte_job_t = type { %struct.pmix_list_item_t, i32, ptr, ptr, [256 x i8], ptr, i32, i32, ptr, ptr, i32, i32, i32, i32, ptr, ptr, ptr, i32, i32, i32, i32, i32, i32, i32, %struct.pmix_proc, i32, i16, %struct.pmix_list_t, %struct.pmix_data_buffer, %struct.pmix_list_t, [256 x i8], i32, ptr, %struct.pmix_cli_result_t }
%struct.pmix_data_buffer = type { ptr, ptr, ptr, i64, i64 }
%struct.pmix_cli_result_t = type { %struct.pmix_object_t, %struct.pmix_list_t, ptr }

@prte_process_info = external global %struct.prte_process_info_t, align 8
@prte_state_base_framework = external global %struct.pmix_mca_base_framework_t, align 8
@.str.4 = private unnamed_addr constant [26 x i8] c"base/ess_base_std_prted.c\00", align 1
@pmix_output_info = external global [0 x %struct.pmix_output_desc_t], align 8
@prte_exit_status = external global i32, align 4
@prte_debug_output = external global i32, align 4
@.str.45 = private unnamed_addr constant [37 x i8] c"%s:%s(%d) updating exit status to %d\00", align 1
@.str.46 = private unnamed_addr constant [42 x i8] c"%s [%f] ACTIVATE JOB %s STATE %s AT %s:%d\00", align 1
@.str.47 = private unnamed_addr constant [5 x i8] c"NULL\00", align 1
@prte_state = external global %struct.prte_state_base_module_1_0_0_t, align 8

; Function Attrs: nounwind uwtable
define internal void @shutdown_signal(i32 noundef %0, i16 noundef signext %1, ptr noundef %2) #0 {
  %4 = alloca i32, align 4
  %5 = alloca i16, align 2
  %6 = alloca ptr, align 8
  %7 = alloca ptr, align 8
  %8 = alloca double, align 8
  %9 = alloca %struct.timeval, align 8
  store i32 %0, ptr %4, align 4, !tbaa !3
  store i16 %1, ptr %5, align 2, !tbaa !98
  store ptr %2, ptr %6, align 8, !tbaa !10
  br label %10

10:                                               ; preds = %3
  %11 = load i32, ptr @prte_exit_status, align 4, !tbaa !3
  %12 = icmp eq i32 0, %11
  br i1 %12, label %13, label %30

13:                                               ; preds = %10
  %14 = load i32, ptr @prte_debug_output, align 4, !tbaa !3
  %15 = icmp sge i32 %14, 0
  br i1 %15, label %16, label %29

16:                                               ; preds = %13
  %17 = load i32, ptr @prte_debug_output, align 4, !tbaa !3
  %18 = icmp slt i32 %17, 64
  br i1 %18, label %19, label %29

19:                                               ; preds = %16
  %20 = load i32, ptr @prte_debug_output, align 4, !tbaa !3
  %21 = sext i32 %20 to i64
  %22 = getelementptr inbounds [0 x %struct.pmix_output_desc_t], ptr @pmix_output_info, i64 0, i64 %21
  %23 = getelementptr inbounds nuw %struct.pmix_output_desc_t, ptr %22, i32 0, i32 2
  %24 = load i32, ptr %23, align 4, !tbaa !73
  %25 = icmp sge i32 %24, 1
  br i1 %25, label %26, label %29

26:                                               ; preds = %19
  %27 = load i32, ptr @prte_debug_output, align 4, !tbaa !3
  %28 = call ptr @prte_util_print_name_args(ptr noundef @prte_process_info)
  call void (i32, ptr, ...) @pmix_output(i32 noundef %27, ptr noundef @.str.45, ptr noundef %28, ptr noundef @.str.4, i32 noundef 502, i32 noundef 1)
  br label %29

29:                                               ; preds = %26, %19, %16, %13
  store i32 1, ptr @prte_exit_status, align 4, !tbaa !3
  br label %30

30:                                               ; preds = %29, %10
  br label %31

31:                                               ; preds = %30
  br label %32

32:                                               ; preds = %31
  call void @llvm.lifetime.start.p0(i64 8, ptr %7) #12
  store ptr null, ptr %7, align 8, !tbaa !10
  %33 = load i32, ptr getelementptr inbounds nuw (%struct.pmix_mca_base_framework_t, ptr @prte_state_base_framework, i32 0, i32 10), align 8, !tbaa !99
  %34 = icmp sgt i32 %33, 0
  br i1 %34, label %35, label %77

35:                                               ; preds = %32
  call void @llvm.lifetime.start.p0(i64 8, ptr %8) #12
  store double 0.000000e+00, ptr %8, align 8, !tbaa !100
  br label %36

36:                                               ; preds = %35
  call void @llvm.lifetime.start.p0(i64 16, ptr %9) #12
  %37 = call i32 @gettimeofday(ptr noundef %9, ptr noundef null) #12
  %38 = getelementptr inbounds nuw %struct.timeval, ptr %9, i32 0, i32 0
  %39 = load i64, ptr %38, align 8, !tbaa !102
  %40 = sitofp i64 %39 to double
  store double %40, ptr %8, align 8, !tbaa !100
  %41 = getelementptr inbounds nuw %struct.timeval, ptr %9, i32 0, i32 1
  %42 = load i64, ptr %41, align 8, !tbaa !104
  %43 = sitofp i64 %42 to double
  %44 = fdiv double %43, 1.000000e+06
  %45 = load double, ptr %8, align 8, !tbaa !100
  %46 = fadd double %45, %44
  store double %46, ptr %8, align 8, !tbaa !100
  call void @llvm.lifetime.end.p0(i64 16, ptr %9) #12
  br label %47

47:                                               ; preds = %36
  br label %48

48:                                               ; preds = %47
  %49 = load i32, ptr getelementptr inbounds nuw (%struct.pmix_mca_base_framework_t, ptr @prte_state_base_framework, i32 0, i32 11), align 4, !tbaa !70
  %50 = icmp sge i32 %49, 0
  br i1 %50, label %51, label %76

51:                                               ; preds = %48
  %52 = load i32, ptr getelementptr inbounds nuw (%struct.pmix_mca_base_framework_t, ptr @prte_state_base_framework, i32 0, i32 11), align 4, !tbaa !70
  %53 = icmp slt i32 %52, 64
  br i1 %53, label %54, label %76

54:                                               ; preds = %51
  %55 = load i32, ptr getelementptr inbounds nuw (%struct.pmix_mca_base_framework_t, ptr @prte_state_base_framework, i32 0, i32 11), align 4, !tbaa !70
  %56 = sext i32 %55 to i64
  %57 = getelementptr inbounds [0 x %struct.pmix_output_desc_t], ptr @pmix_output_info, i64 0, i64 %56
  %58 = getelementptr inbounds nuw %struct.pmix_output_desc_t, ptr %57, i32 0, i32 2
  %59 = load i32, ptr %58, align 4, !tbaa !73
  %60 = icmp sge i32 %59, 1
  br i1 %60, label %61, label %76

61:                                               ; preds = %54
  %62 = load i32, ptr getelementptr inbounds nuw (%struct.pmix_mca_base_framework_t, ptr @prte_state_base_framework, i32 0, i32 11), align 4, !tbaa !70
  %63 = call ptr @prte_util_print_name_args(ptr noundef @prte_process_info)
  %64 = load double, ptr %8, align 8, !tbaa !100
  %65 = load ptr, ptr %7, align 8, !tbaa !10
  %66 = icmp eq ptr null, %65
  br i1 %66, label %67, label %68

67:                                               ; preds = %61
  br label %73

68:                                               ; preds = %61
  %69 = load ptr, ptr %7, align 8, !tbaa !10
  %70 = getelementptr inbounds nuw %struct.prte_job_t, ptr %69, i32 0, i32 4
  %71 = getelementptr inbounds [256 x i8], ptr %70, i64 0, i64 0
  %72 = call ptr @prte_util_print_jobids(ptr noundef %71)
  br label %73

73:                                               ; preds = %68, %67
  %74 = phi ptr [ @.str.47, %67 ], [ %72, %68 ]
  %75 = call ptr @prte_job_state_to_str(i32 noundef 64)
  call void (i32, ptr, ...) @pmix_output(i32 noundef %62, ptr noundef @.str.46, ptr noundef %63, double noundef %64, ptr noundef %74, ptr noundef %75, ptr noundef @.str.4, i32 noundef 503)
  br label %76

76:                                               ; preds = %73, %54, %51, %48
  call void @llvm.lifetime.end.p0(i64 8, ptr %8) #12
  br label %77

77:                                               ; preds = %76, %32
  %78 = load ptr, ptr getelementptr inbounds nuw (%struct.prte_state_base_module_1_0_0_t, ptr @prte_state, i32 0, i32 2), align 8, !tbaa !105
  %79 = load ptr, ptr %7, align 8, !tbaa !10
  call void %78(ptr noundef %79, i32 noundef 64)
  call void @llvm.lifetime.end.p0(i64 8, ptr %7) #12
  br label %80

80:                                               ; preds = %77
  ret void
}