; Function Attrs: nounwind uwtable
define internal void @shutdown_signal(i32 %0, i16 signext %1, ptr readnone captures(none) %2) #0 {
  %4 = alloca %struct.timeval, align 8
  %5 = load i32, ptr @prte_exit_status, align 4, !tbaa !90
  %6 = icmp eq i32 %5, 0
  br i1 %6, label %7, label %17

7:                                                ; preds = %3
  %8 = load i32, ptr @prte_debug_output, align 4, !tbaa !90
  %or.cond = icmp ult i32 %8, 64
  br i1 %or.cond, label %9, label %16

9:                                                ; preds = %7
  %10 = zext nneg i32 %8 to i64
  %11 = getelementptr inbounds nuw [0 x %struct.pmix_output_desc_t], ptr @pmix_output_info, i64 0, i64 %10, i32 2
  %12 = load i32, ptr %11, align 4, !tbaa !69
  %13 = icmp sgt i32 %12, 0
  br i1 %13, label %14, label %16

14:                                               ; preds = %9
  %15 = tail call ptr @prte_util_print_name_args(ptr noundef nonnull @prte_process_info) #18
  tail call void (i32, ptr, ...) @pmix_output(i32 noundef %8, ptr noundef nonnull @.str.45, ptr noundef %15, ptr noundef nonnull @.str.4, i32 noundef 502, i32 noundef 1) #18
  br label %16

16:                                               ; preds = %14, %9, %7
  store i32 1, ptr @prte_exit_status, align 4, !tbaa !90
  br label %17

17:                                               ; preds = %16, %3
  %18 = load i32, ptr getelementptr inbounds nuw (i8, ptr @prte_state_base_framework, i64 72), align 8, !tbaa !98
  %19 = icmp sgt i32 %18, 0
  br i1 %19, label %20, label %38

20:                                               ; preds = %17
  call void @llvm.lifetime.start.p0(i64 16, ptr nonnull %4) #18
  %21 = call i32 @gettimeofday(ptr noundef nonnull %4, ptr noundef null) #18
  %22 = load i64, ptr %4, align 8, !tbaa !99
  %23 = sitofp i64 %22 to double
  %24 = getelementptr inbounds nuw i8, ptr %4, i64 8
  %25 = load i64, ptr %24, align 8, !tbaa !101
  %26 = sitofp i64 %25 to double
  %27 = fdiv double %26, 1.000000e+06
  %28 = fadd double %27, %23
  call void @llvm.lifetime.end.p0(i64 16, ptr nonnull %4) #18
  %29 = load i32, ptr getelementptr inbounds nuw (i8, ptr @prte_state_base_framework, i64 76), align 4, !tbaa !66
  %or.cond3 = icmp ult i32 %29, 64
  br i1 %or.cond3, label %30, label %38

30:                                               ; preds = %20
  %31 = zext nneg i32 %29 to i64
  %32 = getelementptr inbounds nuw [0 x %struct.pmix_output_desc_t], ptr @pmix_output_info, i64 0, i64 %31, i32 2
  %33 = load i32, ptr %32, align 4, !tbaa !69
  %34 = icmp sgt i32 %33, 0
  br i1 %34, label %35, label %38

35:                                               ; preds = %30
  %36 = tail call ptr @prte_util_print_name_args(ptr noundef nonnull @prte_process_info) #18
  %37 = tail call ptr @prte_job_state_to_str(i32 noundef 64) #18
  tail call void (i32, ptr, ...) @pmix_output(i32 noundef %29, ptr noundef nonnull @.str.46, ptr noundef %36, double noundef %28, ptr noundef nonnull @.str.47, ptr noundef %37, ptr noundef nonnull @.str.4, i32 noundef 503) #18
  br label %38

38:                                               ; preds = %20, %30, %35, %17
  %39 = load ptr, ptr getelementptr inbounds nuw (i8, ptr @prte_state, i64 16), align 8, !tbaa !102
  tail call void %39(ptr noundef null, i32 noundef 64) #18
  ret void
}